; ModuleID = 'source-C-CXX/16/1094.c'
source_filename = "source-C-CXX/16/1094.c"
target datalayout = "e-m:e-p270:32:32-p271:32:32-p272:64:64-i64:64-f80:128-n8:16:32:64-S128"
target triple = "x86_64-pc-linux-gnu"

@.str = private unnamed_addr constant [3 x i8] c"%s\00", align 1

; Function Attrs: nofree nounwind sspstrong uwtable
define dso_local i32 @main() local_unnamed_addr #0 {
  %1 = alloca [100 x i8], align 16
  %2 = alloca [100 x i8], align 16
  %3 = getelementptr inbounds [100 x i8], [100 x i8]* %1, i64 0, i64 0
  call void @llvm.lifetime.start.p0i8(i64 100, i8* nonnull %3) #6
  call void @llvm.memset.p0i8.i64(i8* noundef nonnull align 16 dereferenceable(100) %3, i8 0, i64 100, i1 false)
  %4 = getelementptr inbounds [100 x i8], [100 x i8]* %2, i64 0, i64 0
  call void @llvm.lifetime.start.p0i8(i64 100, i8* nonnull %4) #6
  call void @llvm.memset.p0i8.i64(i8* noundef nonnull align 16 dereferenceable(100) %4, i8 0, i64 100, i1 false)
  %5 = call i32 (i8*, ...) @__isoc99_scanf(i8* getelementptr inbounds ([3 x i8], [3 x i8]* @.str, i64 0, i64 0), i8* nonnull %3)
  %6 = icmp eq i32 %5, -1
  br i1 %6, label %69, label %7

7:                                                ; preds = %0, %65
  %8 = call i64 @strlen(i8* noundef nonnull %3) #7
  %9 = trunc i64 %8 to i32
  %10 = icmp sgt i32 %9, 0
  br i1 %10, label %11, label %51

11:                                               ; preds = %7
  %12 = and i64 %8, 4294967295
  br label %16

13:                                               ; preds = %40
  br i1 %10, label %14, label %51

14:                                               ; preds = %13
  %15 = and i64 %8, 4294967295
  br label %43

16:                                               ; preds = %11, %40
  %17 = phi i64 [ 0, %11 ], [ %41, %40 ]
  %18 = getelementptr inbounds [100 x i8], [100 x i8]* %1, i64 0, i64 %17
  %19 = load i8, i8* %18, align 1, !tbaa !5
  switch i8 %19, label %38 [
    i8 40, label %20
    i8 41, label %22
  ]

20:                                               ; preds = %16
  %21 = getelementptr inbounds [100 x i8], [100 x i8]* %2, i64 0, i64 %17
  store i8 36, i8* %21, align 1, !tbaa !5
  br label %40

22:                                               ; preds = %16
  %23 = getelementptr inbounds [100 x i8], [100 x i8]* %2, i64 0, i64 %17
  store i8 63, i8* %23, align 1, !tbaa !5
  %24 = icmp eq i64 %17, 0
  br i1 %24, label %40, label %25

25:                                               ; preds = %22, %34
  %26 = phi i64 [ %37, %34 ], [ %17, %22 ]
  %27 = add i64 %26, 4294967295
  %28 = and i64 %27, 4294967295
  %29 = getelementptr inbounds [100 x i8], [100 x i8]* %2, i64 0, i64 %28
  %30 = load i8, i8* %29, align 1, !tbaa !5
  %31 = icmp eq i8 %30, 36
  br i1 %31, label %32, label %34

32:                                               ; preds = %25
  %33 = getelementptr inbounds [100 x i8], [100 x i8]* %2, i64 0, i64 %28
  store i8 32, i8* %23, align 1, !tbaa !5
  store i8 32, i8* %33, align 1, !tbaa !5
  br label %40

34:                                               ; preds = %25
  %35 = icmp slt i64 %26, 2
  %36 = or i1 %31, %35
  %37 = add nsw i64 %26, -1
  br i1 %36, label %40, label %25, !llvm.loop !8

38:                                               ; preds = %16
  %39 = getelementptr inbounds [100 x i8], [100 x i8]* %2, i64 0, i64 %17
  store i8 32, i8* %39, align 1, !tbaa !5
  br label %40

40:                                               ; preds = %34, %32, %22, %20, %38
  %41 = add nuw nsw i64 %17, 1
  %42 = icmp eq i64 %41, %12
  br i1 %42, label %13, label %16, !llvm.loop !10

43:                                               ; preds = %14, %43
  %44 = phi i64 [ 0, %14 ], [ %49, %43 ]
  %45 = getelementptr inbounds [100 x i8], [100 x i8]* %1, i64 0, i64 %44
  %46 = load i8, i8* %45, align 1, !tbaa !5
  %47 = sext i8 %46 to i32
  %48 = call i32 @putchar(i32 %47)
  %49 = add nuw nsw i64 %44, 1
  %50 = icmp eq i64 %49, %15
  br i1 %50, label %53, label %43, !llvm.loop !11

51:                                               ; preds = %13, %7
  %52 = call i32 @putchar(i32 10)
  br label %65

53:                                               ; preds = %43
  %54 = call i32 @putchar(i32 10)
  br i1 %10, label %55, label %65

55:                                               ; preds = %53
  %56 = and i64 %8, 4294967295
  br label %57

57:                                               ; preds = %55, %57
  %58 = phi i64 [ 0, %55 ], [ %63, %57 ]
  %59 = getelementptr inbounds [100 x i8], [100 x i8]* %2, i64 0, i64 %58
  %60 = load i8, i8* %59, align 1, !tbaa !5
  %61 = sext i8 %60 to i32
  %62 = call i32 @putchar(i32 %61)
  %63 = add nuw nsw i64 %58, 1
  %64 = icmp eq i64 %63, %56
  br i1 %64, label %65, label %57, !llvm.loop !12

65:                                               ; preds = %57, %51, %53
  %66 = call i32 @putchar(i32 10)
  %67 = call i32 (i8*, ...) @__isoc99_scanf(i8* getelementptr inbounds ([3 x i8], [3 x i8]* @.str, i64 0, i64 0), i8* nonnull %3)
  %68 = icmp eq i32 %67, -1
  br i1 %68, label %69, label %7, !llvm.loop !13

69:                                               ; preds = %65, %0
  call void @llvm.lifetime.end.p0i8(i64 100, i8* nonnull %4) #6
  call void @llvm.lifetime.end.p0i8(i64 100, i8* nonnull %3) #6
  ret i32 0
}

; Function Attrs: argmemonly mustprogress nofree nosync nounwind willreturn
declare void @llvm.lifetime.start.p0i8(i64 immarg, i8* nocapture) #1

; Function Attrs: argmemonly mustprogress nofree nounwind willreturn writeonly
declare void @llvm.memset.p0i8.i64(i8* nocapture writeonly, i8, i64, i1 immarg) #2

; Function Attrs: nofree nounwind
declare noundef i32 @__isoc99_scanf(i8* nocapture noundef readonly, ...) local_unnamed_addr #3

; Function Attrs: argmemonly mustprogress nofree nounwind readonly willreturn
declare i64 @strlen(i8* nocapture) local_unnamed_addr #4

; Function Attrs: argmemonly mustprogress nofree nosync nounwind willreturn
declare void @llvm.lifetime.end.p0i8(i64 immarg, i8* nocapture) #1

; Function Attrs: nofree nounwind
declare noundef i32 @putchar(i32 noundef) local_unnamed_addr #5


!llvm.module.flags = !{!0, !1, !2, !3}
!llvm.ident = !{!4}

!0 = !{i32 1, !"wchar_size", i32 4}
!1 = !{i32 7, !"PIC Level", i32 2}
!2 = !{i32 7, !"PIE Level", i32 2}
!3 = !{i32 7, !"uwtable", i32 1}
!4 = !{!"clang version 13.0.0"}
!5 = !{!6, !6, i64 0}
!6 = !{!"omnipotent char", !7, i64 0}
!7 = !{!"Simple C/C++ TBAA"}
!8 = distinct !{!8, !9}
!9 = !{!"llvm.loop.mustprogress"}
!10 = distinct !{!10, !9}
!11 = distinct !{!11, !9}
!12 = distinct !{!12, !9}
!13 = distinct !{!13, !9}
